; Function Attrs: mustprogress uwtable
define noundef zeroext i1 @_ZN3net10QuicFramer14AppendAckBlockEhNS_22QuicPacketNumberLengthEmPNS_14QuicDataWriterE(i8 noundef zeroext %0, i8 noundef signext %1, i64 noundef %2, ptr noundef %3) local_unnamed_addr #0 align 2 {
  %5 = getelementptr inbounds nuw i8, ptr %3, i64 8
  %6 = load i64, ptr %5, align 8, !tbaa !177
  %7 = getelementptr inbounds nuw i8, ptr %3, i64 16
  %8 = load i64, ptr %7, align 8, !tbaa !166
  %9 = icmp eq i64 %6, %8
  br i1 %9, label %_ZN3net10QuicFramer26AppendPacketSequenceNumberENS_22QuicPacketNumberLengthEmPNS_14QuicDataWriterE.exit5, label %_ZN3net10QuicFramer26AppendPacketSequenceNumberENS_22QuicPacketNumberLengthEmPNS_14QuicDataWriterE.exit

_ZN3net10QuicFramer26AppendPacketSequenceNumberENS_22QuicPacketNumberLengthEmPNS_14QuicDataWriterE.exit: ; preds = %4
  %10 = tail call noundef zeroext i1 @_ZN3net14QuicDataWriter10WriteUInt8Eh(ptr noundef nonnull align 8 dereferenceable(24) %3, i8 noundef zeroext %0)
  br i1 %10, label %11, label %_ZN3net10QuicFramer26AppendPacketSequenceNumberENS_22QuicPacketNumberLengthEmPNS_14QuicDataWriterE.exit5

11:                                               ; preds = %_ZN3net10QuicFramer26AppendPacketSequenceNumberENS_22QuicPacketNumberLengthEmPNS_14QuicDataWriterE.exit
  %12 = load i64, ptr %5, align 8, !tbaa !177
  %13 = load i64, ptr %7, align 8, !tbaa !166
  %14 = sub i64 %12, %13
  %15 = sext i8 %1 to i64
  %16 = icmp ult i64 %14, %15
  br i1 %16, label %_ZN3net10QuicFramer26AppendPacketSequenceNumberENS_22QuicPacketNumberLengthEmPNS_14QuicDataWriterE.exit5, label %17

17:                                               ; preds = %11
  switch i8 %1, label %_ZN3net10QuicFramer26AppendPacketSequenceNumberENS_22QuicPacketNumberLengthEmPNS_14QuicDataWriterE.exit5 [
    i8 1, label %18
    i8 2, label %21
    i8 4, label %24
    i8 6, label %27
  ]

18:                                               ; preds = %17
  %19 = trunc i64 %2 to i8
  %20 = tail call noundef zeroext i1 @_ZN3net14QuicDataWriter10WriteUInt8Eh(ptr noundef nonnull align 8 dereferenceable(24) %3, i8 noundef zeroext %19)
  br label %_ZN3net10QuicFramer26AppendPacketSequenceNumberENS_22QuicPacketNumberLengthEmPNS_14QuicDataWriterE.exit5

21:                                               ; preds = %17
  %22 = trunc i64 %2 to i16
  %23 = tail call noundef zeroext i1 @_ZN3net14QuicDataWriter11WriteUInt16Et(ptr noundef nonnull align 8 dereferenceable(24) %3, i16 noundef zeroext %22)
  br label %_ZN3net10QuicFramer26AppendPacketSequenceNumberENS_22QuicPacketNumberLengthEmPNS_14QuicDataWriterE.exit5

24:                                               ; preds = %17
  %25 = trunc i64 %2 to i32
  %26 = tail call noundef zeroext i1 @_ZN3net14QuicDataWriter11WriteUInt32Ej(ptr noundef nonnull align 8 dereferenceable(24) %3, i32 noundef %25)
  br label %_ZN3net10QuicFramer26AppendPacketSequenceNumberENS_22QuicPacketNumberLengthEmPNS_14QuicDataWriterE.exit5

27:                                               ; preds = %17
  %28 = and i64 %2, 281474976710655
  %29 = tail call noundef zeroext i1 @_ZN3net14QuicDataWriter11WriteUInt48Em(ptr noundef nonnull align 8 dereferenceable(24) %3, i64 noundef %28)
  br label %_ZN3net10QuicFramer26AppendPacketSequenceNumberENS_22QuicPacketNumberLengthEmPNS_14QuicDataWriterE.exit5

_ZN3net10QuicFramer26AppendPacketSequenceNumberENS_22QuicPacketNumberLengthEmPNS_14QuicDataWriterE.exit5: ; preds = %4, %27, %24, %21, %18, %17, %11, %_ZN3net10QuicFramer26AppendPacketSequenceNumberENS_22QuicPacketNumberLengthEmPNS_14QuicDataWriterE.exit
  %30 = phi i1 [ false, %_ZN3net10QuicFramer26AppendPacketSequenceNumberENS_22QuicPacketNumberLengthEmPNS_14QuicDataWriterE.exit ], [ %29, %27 ], [ %26, %24 ], [ %23, %21 ], [ %20, %18 ], [ false, %11 ], [ false, %17 ], [ false, %4 ]
  ret i1 %30
}